; ModuleID = 'source-C-CXX/39/3033.c'
source_filename = "source-C-CXX/39/3033.c"
target datalayout = "e-m:e-p270:32:32-p271:32:32-p272:64:64-i64:64-f80:128-n8:16:32:64-S128"
target triple = "x86_64-pc-linux-gnu"

@.str = private unnamed_addr constant [4 x i8] c"%lf\00", align 1
@.str.1 = private unnamed_addr constant [14 x i8] c"Invalid input\00", align 1
@.str.2 = private unnamed_addr constant [6 x i8] c"%.4lf\00", align 1

; Function Attrs: mustprogress nofree nounwind sspstrong uwtable willreturn
define dso_local double @areo(double %0, double %1, double %2, double %3, double %4) local_unnamed_addr #0 {
  %6 = fadd double %0, %1
  %7 = fadd double %6, %2
  %8 = fadd double %7, %3
  %9 = fmul double %8, 5.000000e-01
  %10 = fsub double %9, %0
  %11 = fsub double %9, %1
  %12 = fmul double %10, %11
  %13 = fsub double %9, %2
  %14 = fmul double %13, %12
  %15 = fsub double %9, %3
  %16 = fmul double %15, %14
  %17 = fmul double %0, %1
  %18 = fmul double %17, %2
  %19 = fmul double %18, %3
  %20 = tail call double @cos(double %4) #5
  %21 = fmul double %19, %20
  %22 = tail call double @cos(double %4) #5
  %23 = fmul double %21, %22
  %24 = fsub double %16, %23
  %25 = fcmp olt double %24, 0.000000e+00
  br i1 %25, label %28, label %26

26:                                               ; preds = %5
  %27 = tail call double @sqrt(double %24) #5
  br label %28

28:                                               ; preds = %5, %26
  %29 = phi double [ %27, %26 ], [ 0.000000e+00, %5 ]
  ret double %29
}

; Function Attrs: argmemonly mustprogress nofree nosync nounwind willreturn
declare void @llvm.lifetime.start.p0i8(i64 immarg, i8* nocapture) #1

; Function Attrs: mustprogress nofree nounwind willreturn
declare double @cos(double) local_unnamed_addr #2

; Function Attrs: mustprogress nofree nounwind willreturn
declare double @sqrt(double) local_unnamed_addr #2

; Function Attrs: argmemonly mustprogress nofree nosync nounwind willreturn
declare void @llvm.lifetime.end.p0i8(i64 immarg, i8* nocapture) #1

; Function Attrs: nofree nounwind sspstrong uwtable
define dso_local i32 @main() local_unnamed_addr #3 {
  %1 = alloca double, align 8
  %2 = alloca double, align 8
  %3 = alloca double, align 8
  %4 = alloca double, align 8
  %5 = alloca double, align 8
  %6 = bitcast double* %1 to i8*
  call void @llvm.lifetime.start.p0i8(i64 8, i8* nonnull %6) #5
  %7 = bitcast double* %2 to i8*
  call void @llvm.lifetime.start.p0i8(i64 8, i8* nonnull %7) #5
  %8 = bitcast double* %3 to i8*
  call void @llvm.lifetime.start.p0i8(i64 8, i8* nonnull %8) #5
  %9 = bitcast double* %4 to i8*
  call void @llvm.lifetime.start.p0i8(i64 8, i8* nonnull %9) #5
  %10 = bitcast double* %5 to i8*
  call void @llvm.lifetime.start.p0i8(i64 8, i8* nonnull %10) #5
  %11 = call i32 (i8*, ...) @__isoc99_scanf(i8* getelementptr inbounds ([4 x i8], [4 x i8]* @.str, i64 0, i64 0), double* nonnull %1)
  %12 = call i32 (i8*, ...) @__isoc99_scanf(i8* getelementptr inbounds ([4 x i8], [4 x i8]* @.str, i64 0, i64 0), double* nonnull %2)
  %13 = call i32 (i8*, ...) @__isoc99_scanf(i8* getelementptr inbounds ([4 x i8], [4 x i8]* @.str, i64 0, i64 0), double* nonnull %3)
  %14 = call i32 (i8*, ...) @__isoc99_scanf(i8* getelementptr inbounds ([4 x i8], [4 x i8]* @.str, i64 0, i64 0), double* nonnull %4)
  %15 = call i32 (i8*, ...) @__isoc99_scanf(i8* getelementptr inbounds ([4 x i8], [4 x i8]* @.str, i64 0, i64 0), double* nonnull %5)
  %16 = load double, double* %5, align 8, !tbaa !5
  %17 = fmul double %16, 0x400921FB4D12D84A
  %18 = fdiv double %17, 1.800000e+02
  %19 = fmul double %18, 5.000000e-01
  store double %19, double* %5, align 8, !tbaa !5
  %20 = load double, double* %1, align 8, !tbaa !5
  %21 = load double, double* %2, align 8, !tbaa !5
  %22 = load double, double* %3, align 8, !tbaa !5
  %23 = load double, double* %4, align 8, !tbaa !5
  %24 = fadd double %20, %21
  %25 = fadd double %24, %22
  %26 = fadd double %25, %23
  %27 = fmul double %26, 5.000000e-01
  %28 = fsub double %27, %20
  %29 = fsub double %27, %21
  %30 = fmul double %28, %29
  %31 = fsub double %27, %22
  %32 = fmul double %31, %30
  %33 = fsub double %27, %23
  %34 = fmul double %33, %32
  %35 = fmul double %20, %21
  %36 = fmul double %35, %22
  %37 = fmul double %36, %23
  %38 = call double @cos(double %19) #5
  %39 = fmul double %37, %38
  %40 = call double @cos(double %19) #5
  %41 = fmul double %39, %40
  %42 = fsub double %34, %41
  %43 = fcmp olt double %42, 0.000000e+00
  br i1 %43, label %47, label %44

44:                                               ; preds = %0
  %45 = call double @sqrt(double %42) #5
  %46 = fcmp oeq double %45, 0.000000e+00
  br i1 %46, label %47, label %49

47:                                               ; preds = %0, %44
  %48 = call i32 (i8*, ...) @printf(i8* nonnull dereferenceable(1) getelementptr inbounds ([14 x i8], [14 x i8]* @.str.1, i64 0, i64 0))
  br label %80

49:                                               ; preds = %44
  %50 = load double, double* %1, align 8, !tbaa !5
  %51 = load double, double* %2, align 8, !tbaa !5
  %52 = load double, double* %3, align 8, !tbaa !5
  %53 = load double, double* %4, align 8, !tbaa !5
  %54 = load double, double* %5, align 8, !tbaa !5
  %55 = fadd double %50, %51
  %56 = fadd double %55, %52
  %57 = fadd double %56, %53
  %58 = fmul double %57, 5.000000e-01
  %59 = fsub double %58, %50
  %60 = fsub double %58, %51
  %61 = fmul double %59, %60
  %62 = fsub double %58, %52
  %63 = fmul double %62, %61
  %64 = fsub double %58, %53
  %65 = fmul double %64, %63
  %66 = fmul double %50, %51
  %67 = fmul double %66, %52
  %68 = fmul double %67, %53
  %69 = call double @cos(double %54) #5
  %70 = fmul double %68, %69
  %71 = call double @cos(double %54) #5
  %72 = fmul double %70, %71
  %73 = fsub double %65, %72
  %74 = fcmp olt double %73, 0.000000e+00
  br i1 %74, label %77, label %75

75:                                               ; preds = %49
  %76 = call double @sqrt(double %73) #5
  br label %77

77:                                               ; preds = %49, %75
  %78 = phi double [ %76, %75 ], [ 0.000000e+00, %49 ]
  %79 = call i32 (i8*, ...) @printf(i8* nonnull dereferenceable(1) getelementptr inbounds ([6 x i8], [6 x i8]* @.str.2, i64 0, i64 0), double %78)
  br label %80

80:                                               ; preds = %77, %47
  call void @llvm.lifetime.end.p0i8(i64 8, i8* nonnull %10) #5
  call void @llvm.lifetime.end.p0i8(i64 8, i8* nonnull %9) #5
  call void @llvm.lifetime.end.p0i8(i64 8, i8* nonnull %8) #5
  call void @llvm.lifetime.end.p0i8(i64 8, i8* nonnull %7) #5
  call void @llvm.lifetime.end.p0i8(i64 8, i8* nonnull %6) #5
  ret i32 0
}

; Function Attrs: nofree nounwind
declare noundef i32 @__isoc99_scanf(i8* nocapture noundef readonly, ...) local_unnamed_addr #4

; Function Attrs: nofree nounwind
declare noundef i32 @printf(i8* nocapture noundef readonly, ...) local_unnamed_addr #4


!llvm.module.flags = !{!0, !1, !2, !3}
!llvm.ident = !{!4}

!0 = !{i32 1, !"wchar_size", i32 4}
!1 = !{i32 7, !"PIC Level", i32 2}
!2 = !{i32 7, !"PIE Level", i32 2}
!3 = !{i32 7, !"uwtable", i32 1}
!4 = !{!"clang version 13.0.0"}
!5 = !{!6, !6, i64 0}
!6 = !{!"double", !7, i64 0}
!7 = !{!"omnipotent char", !8, i64 0}
!8 = !{!"Simple C/C++ TBAA"}
